; Function Attrs: mustprogress nounwind uwtable
define hidden noundef ptr @_ZN11ModuleEntry22restore_growable_arrayEP5ArrayIPS_E(ptr noundef readonly %0) local_unnamed_addr #0 align 2 {
  %2 = icmp eq ptr %0, null
  br i1 %2, label %.thread, label %3

3:                                                ; preds = %1
  %4 = load i32, ptr %0, align 8
  %5 = icmp sgt i32 %4, 0
  br i1 %5, label %6, label %.thread

6:                                                ; preds = %3
  %7 = tail call noundef ptr @_ZN6AnyObjnwEm8MEMFLAGS(i64 noundef 24, i8 noundef zeroext 20) #16
  %8 = icmp eq ptr %7, null
  br i1 %8, label %.lr.ph, label %_ZN13GrowableArrayIP11ModuleEntryEC2Ei8MEMFLAGS.exit

_ZN13GrowableArrayIP11ModuleEntryEC2Ei8MEMFLAGS.exit: ; preds = %6
  %9 = tail call noundef ptr @_ZN27GrowableArrayCHeapAllocator8allocateEii8MEMFLAGS(i32 noundef %4, i32 noundef 8, i8 noundef zeroext 20) #16
  store i32 0, ptr %7, align 4
  %10 = getelementptr inbounds i8, ptr %7, i64 4
  store i32 %4, ptr %10, align 4
  %11 = getelementptr inbounds i8, ptr %7, i64 8
  store ptr %9, ptr %11, align 8
  %12 = zext nneg i32 %4 to i64
  %13 = shl nuw nsw i64 %12, 3
  tail call void @llvm.memset.p0.i64(ptr align 8 %9, i8 0, i64 %13, i1 false)
  %14 = getelementptr inbounds i8, ptr %7, i64 16
  store i64 41, ptr %14, align 8
  br label %.lr.ph

.lr.ph:                                           ; preds = %6, %_ZN13GrowableArrayIP11ModuleEntryEC2Ei8MEMFLAGS.exit
  %15 = getelementptr inbounds i8, ptr %0, i64 8
  %16 = getelementptr inbounds i8, ptr %7, i64 4
  %17 = getelementptr inbounds i8, ptr %7, i64 8
  %wide.trip.count = zext nneg i32 %4 to i64
  br label %18

18:                                               ; preds = %.lr.ph, %_ZN26GrowableArrayWithAllocatorIP11ModuleEntry13GrowableArrayIS1_EE6appendERKS1_.exit
  %indvars.iv = phi i64 [ 0, %.lr.ph ], [ %indvars.iv.next, %_ZN26GrowableArrayWithAllocatorIP11ModuleEntry13GrowableArrayIS1_EE6appendERKS1_.exit ]
  %19 = getelementptr inbounds ptr, ptr %15, i64 %indvars.iv
  %20 = load ptr, ptr %19, align 8
  %21 = load i32, ptr %7, align 8
  %22 = load i32, ptr %16, align 4
  %23 = icmp eq i32 %21, %22
  br i1 %23, label %24, label %_ZN26GrowableArrayWithAllocatorIP11ModuleEntry13GrowableArrayIS1_EE6appendERKS1_.exit

24:                                               ; preds = %18
  %25 = add nsw i32 %21, 1
  %26 = icmp sgt i32 %21, -1
  %27 = xor i32 %21, -2147483648
  %28 = and i32 %27, %25
  %29 = icmp eq i32 %28, 0
  %30 = and i1 %26, %29
  %31 = tail call range(i32 0, 33) i32 @llvm.ctlz.i32(i32 %25, i1 true)
  %32 = sub nuw nsw i32 32, %31
  %33 = shl nuw i32 1, %32
  %.0.i.i.i.i = select i1 %30, i32 %25, i32 %33
  tail call void @_ZN26GrowableArrayWithAllocatorIP11ModuleEntry13GrowableArrayIS1_EE9expand_toEi(ptr noundef nonnull align 8 dereferenceable(16) %7, i32 noundef %.0.i.i.i.i)
  %.pre.i = load i32, ptr %7, align 8
  br label %_ZN26GrowableArrayWithAllocatorIP11ModuleEntry13GrowableArrayIS1_EE6appendERKS1_.exit

_ZN26GrowableArrayWithAllocatorIP11ModuleEntry13GrowableArrayIS1_EE6appendERKS1_.exit: ; preds = %18, %24
  %34 = phi i32 [ %.pre.i, %24 ], [ %21, %18 ]
  %35 = add nsw i32 %34, 1
  store i32 %35, ptr %7, align 8
  %36 = load ptr, ptr %17, align 8
  %37 = sext i32 %34 to i64
  %38 = getelementptr inbounds ptr, ptr %36, i64 %37
  store ptr %20, ptr %38, align 8
  %indvars.iv.next = add nuw nsw i64 %indvars.iv, 1
  %exitcond.not = icmp eq i64 %indvars.iv.next, %wide.trip.count
  br i1 %exitcond.not, label %.thread, label %18, !llvm.loop !16

.thread:                                          ; preds = %_ZN26GrowableArrayWithAllocatorIP11ModuleEntry13GrowableArrayIS1_EE6appendERKS1_.exit, %1, %3
  %.010 = phi ptr [ null, %3 ], [ null, %1 ], [ %7, %_ZN26GrowableArrayWithAllocatorIP11ModuleEntry13GrowableArrayIS1_EE6appendERKS1_.exit ]
  ret ptr %.010
}